; ModuleID = '53/209.c'
source_filename = "53/209.c"
target datalayout = "e-m:e-p270:32:32-p271:32:32-p272:64:64-i64:64-f80:128-n8:16:32:64-S128"
target triple = "x86_64-pc-linux-gnu"

@.str = private unnamed_addr constant [3 x i8] c"%d\00", align 1
@.str.1 = private unnamed_addr constant [4 x i8] c",%d\00", align 1

; Function Attrs: noinline nounwind uwtable
define dso_local void @main() #0 {
  %1 = alloca [301 x i32], align 16
  %2 = alloca i32, align 4
  %3 = alloca i32, align 4
  %4 = alloca i32, align 4
  %5 = bitcast [301 x i32]* %1 to i8*
  call void @llvm.memset.p0i8.i64(i8* align 16 %5, i8 0, i64 1204, i1 false)
  %6 = call i32 (i8*, ...) @__isoc99_scanf(i8* getelementptr inbounds ([3 x i8], [3 x i8]* @.str, i64 0, i64 0), i32* %3)
  store i32 0, i32* %2, align 4
  br label %7

7:                                                ; preds = %16, %0
  %8 = load i32, i32* %2, align 4
  %9 = load i32, i32* %3, align 4
  %10 = icmp slt i32 %8, %9
  br i1 %10, label %11, label %19

11:                                               ; preds = %7
  %12 = load i32, i32* %2, align 4
  %13 = sext i32 %12 to i64
  %14 = getelementptr inbounds [301 x i32], [301 x i32]* %1, i64 0, i64 %13
  %15 = call i32 (i8*, ...) @__isoc99_scanf(i8* getelementptr inbounds ([3 x i8], [3 x i8]* @.str, i64 0, i64 0), i32* %14)
  br label %16

16:                                               ; preds = %11
  %17 = load i32, i32* %2, align 4
  %18 = add nsw i32 %17, 1
  store i32 %18, i32* %2, align 4
  br label %7

19:                                               ; preds = %7
  store i32 0, i32* %2, align 4
  br label %20

20:                                               ; preds = %50, %19
  %21 = load i32, i32* %2, align 4
  %22 = load i32, i32* %3, align 4
  %23 = icmp slt i32 %21, %22
  br i1 %23, label %24, label %53

24:                                               ; preds = %20
  %25 = load i32, i32* %2, align 4
  %26 = add nsw i32 %25, 1
  store i32 %26, i32* %4, align 4
  br label %27

27:                                               ; preds = %46, %24
  %28 = load i32, i32* %4, align 4
  %29 = load i32, i32* %3, align 4
  %30 = icmp slt i32 %28, %29
  br i1 %30, label %31, label %49

31:                                               ; preds = %27
  %32 = load i32, i32* %4, align 4
  %33 = sext i32 %32 to i64
  %34 = getelementptr inbounds [301 x i32], [301 x i32]* %1, i64 0, i64 %33
  %35 = load i32, i32* %34, align 4
  %36 = load i32, i32* %2, align 4
  %37 = sext i32 %36 to i64
  %38 = getelementptr inbounds [301 x i32], [301 x i32]* %1, i64 0, i64 %37
  %39 = load i32, i32* %38, align 4
  %40 = icmp eq i32 %35, %39
  br i1 %40, label %41, label %45

41:                                               ; preds = %31
  %42 = load i32, i32* %4, align 4
  %43 = sext i32 %42 to i64
  %44 = getelementptr inbounds [301 x i32], [301 x i32]* %1, i64 0, i64 %43
  store i32 0, i32* %44, align 4
  br label %45

45:                                               ; preds = %41, %31
  br label %46

46:                                               ; preds = %45
  %47 = load i32, i32* %4, align 4
  %48 = add nsw i32 %47, 1
  store i32 %48, i32* %4, align 4
  br label %27

49:                                               ; preds = %27
  br label %50

50:                                               ; preds = %49
  %51 = load i32, i32* %2, align 4
  %52 = add nsw i32 %51, 1
  store i32 %52, i32* %2, align 4
  br label %20

53:                                               ; preds = %20
  store i32 0, i32* %2, align 4
  br label %54

54:                                               ; preds = %91, %53
  %55 = load i32, i32* %2, align 4
  %56 = load i32, i32* %3, align 4
  %57 = icmp slt i32 %55, %56
  br i1 %57, label %58, label %94

58:                                               ; preds = %54
  %59 = load i32, i32* %2, align 4
  %60 = sext i32 %59 to i64
  %61 = getelementptr inbounds [301 x i32], [301 x i32]* %1, i64 0, i64 %60
  %62 = load i32, i32* %61, align 4
  %63 = icmp ne i32 %62, 0
  br i1 %63, label %64, label %73

64:                                               ; preds = %58
  %65 = load i32, i32* %2, align 4
  %66 = icmp eq i32 %65, 0
  br i1 %66, label %67, label %73

67:                                               ; preds = %64
  %68 = load i32, i32* %2, align 4
  %69 = sext i32 %68 to i64
  %70 = getelementptr inbounds [301 x i32], [301 x i32]* %1, i64 0, i64 %69
  %71 = load i32, i32* %70, align 4
  %72 = call i32 (i8*, ...) @printf(i8* getelementptr inbounds ([3 x i8], [3 x i8]* @.str, i64 0, i64 0), i32 %71)
  br label %90

73:                                               ; preds = %64, %58
  %74 = load i32, i32* %2, align 4
  %75 = sext i32 %74 to i64
  %76 = getelementptr inbounds [301 x i32], [301 x i32]* %1, i64 0, i64 %75
  %77 = load i32, i32* %76, align 4
  %78 = icmp ne i32 %77, 0
  br i1 %78, label %79, label %88

79:                                               ; preds = %73
  %80 = load i32, i32* %2, align 4
  %81 = icmp sgt i32 %80, 0
  br i1 %81, label %82, label %88

82:                                               ; preds = %79
  %83 = load i32, i32* %2, align 4
  %84 = sext i32 %83 to i64
  %85 = getelementptr inbounds [301 x i32], [301 x i32]* %1, i64 0, i64 %84
  %86 = load i32, i32* %85, align 4
  %87 = call i32 (i8*, ...) @printf(i8* getelementptr inbounds ([4 x i8], [4 x i8]* @.str.1, i64 0, i64 0), i32 %86)
  br label %89

88:                                               ; preds = %79, %73
  br label %89

89:                                               ; preds = %88, %82
  br label %90

90:                                               ; preds = %89, %67
  br label %91

91:                                               ; preds = %90
  %92 = load i32, i32* %2, align 4
  %93 = add nsw i32 %92, 1
  store i32 %93, i32* %2, align 4
  br label %54

94:                                               ; preds = %54
  ret void
}

; Function Attrs: argmemonly nounwind willreturn
declare void @llvm.memset.p0i8.i64(i8* nocapture writeonly, i8, i64, i1 immarg) #1

declare dso_local i32 @__isoc99_scanf(i8*, ...) #2

declare dso_local i32 @printf(i8*, ...) #2


!llvm.module.flags = !{!0}
!llvm.ident = !{!1}

!0 = !{i32 1, !"wchar_size", i32 4}
!1 = !{!"clang version 10.0.0-4ubuntu1 "}
